target datalayout = "e-m:e-p270:32:32-p271:32:32-p272:64:64-i64:64-i128:128-f80:128-n8:16:32:64-S128"
target triple = "x86_64-pc-linux-gnu"

%struct.Vec_Int_t_ = type { i32, i32, ptr }
%struct.Aig_Man_t_ = type { ptr, ptr, ptr, ptr, ptr, ptr, ptr, %struct.Aig_Obj_t_, i32, i32, i32, i32, i32, i32, [7 x i32], i32, ptr, i32, ptr, i32, ptr, i32, i32, i32, ptr, i32, i32, i32, i32, i32, ptr, ptr, i32, ptr, ptr, i32, ptr, ptr, i32, i32, i32, ptr, ptr, ptr, ptr, ptr, ptr, ptr, ptr, ptr, ptr, ptr, ptr, ptr, ptr, i32, ptr, ptr, ptr, ptr, i32, i64, i64, i64, ptr, ptr }
%struct.Aig_Obj_t_ = type { %union.anon, ptr, ptr, i64, i32, i32, %union.anon.0 }
%union.anon = type { ptr }
%union.anon.0 = type { ptr }
%struct.Vec_Ptr_t_ = type { i32, i32, ptr }

; Function Attrs: inlinehint nounwind uwtable
define internal i32 @Aig_IsComplement(ptr noundef %0) #2 {
  %2 = alloca ptr, align 8
  store ptr %0, ptr %2, align 8, !tbaa !28
  %3 = load ptr, ptr %2, align 8, !tbaa !28
  %4 = ptrtoint ptr %3 to i64
  %5 = and i64 %4, 1
  %6 = trunc i64 %5 to i32
  ret i32 %6
}

; Function Attrs: inlinehint nounwind uwtable
define internal ptr @Aig_Regular(ptr noundef %0) #2 {
  %2 = alloca ptr, align 8
  store ptr %0, ptr %2, align 8, !tbaa !28
  %3 = load ptr, ptr %2, align 8, !tbaa !28
  %4 = ptrtoint ptr %3 to i64
  %5 = and i64 %4, -2
  %6 = inttoptr i64 %5 to ptr
  ret ptr %6
}

; Function Attrs: inlinehint nounwind uwtable
define internal i32 @Aig_ManCiNum(ptr noundef %0) #2 {
  %2 = alloca ptr, align 8
  store ptr %0, ptr %2, align 8, !tbaa !3
  %3 = load ptr, ptr %2, align 8, !tbaa !3
  %4 = getelementptr inbounds nuw %struct.Aig_Man_t_, ptr %3, i32 0, i32 14
  %5 = getelementptr inbounds [7 x i32], ptr %4, i64 0, i64 2
  %6 = load i32, ptr %5, align 8, !tbaa !10
  ret i32 %6
}

; Function Attrs: inlinehint nounwind uwtable
define internal i32 @Aig_ObjFaninC1(ptr noundef %0) #2 {
  %2 = alloca ptr, align 8
  store ptr %0, ptr %2, align 8, !tbaa !28
  %3 = load ptr, ptr %2, align 8, !tbaa !28
  %4 = getelementptr inbounds nuw %struct.Aig_Obj_t_, ptr %3, i32 0, i32 2
  %5 = load ptr, ptr %4, align 8, !tbaa !49
  %6 = call i32 @Aig_IsComplement(ptr noundef %5)
  ret i32 %6
}

; Function Attrs: inlinehint nounwind uwtable
define internal ptr @Aig_ObjFanin1(ptr noundef %0) #2 {
  %2 = alloca ptr, align 8
  store ptr %0, ptr %2, align 8, !tbaa !28
  %3 = load ptr, ptr %2, align 8, !tbaa !28
  %4 = getelementptr inbounds nuw %struct.Aig_Obj_t_, ptr %3, i32 0, i32 2
  %5 = load ptr, ptr %4, align 8, !tbaa !49
  %6 = call ptr @Aig_Regular(ptr noundef %5)
  ret ptr %6
}

; Function Attrs: inlinehint nounwind uwtable
define internal i32 @Aig_ObjFaninC0(ptr noundef %0) #2 {
  %2 = alloca ptr, align 8
  store ptr %0, ptr %2, align 8, !tbaa !28
  %3 = load ptr, ptr %2, align 8, !tbaa !28
  %4 = getelementptr inbounds nuw %struct.Aig_Obj_t_, ptr %3, i32 0, i32 1
  %5 = load ptr, ptr %4, align 8, !tbaa !48
  %6 = call i32 @Aig_IsComplement(ptr noundef %5)
  ret i32 %6
}

; Function Attrs: inlinehint nounwind uwtable
define internal ptr @Aig_ObjFanin0(ptr noundef %0) #2 {
  %2 = alloca ptr, align 8
  store ptr %0, ptr %2, align 8, !tbaa !28
  %3 = load ptr, ptr %2, align 8, !tbaa !28
  %4 = getelementptr inbounds nuw %struct.Aig_Obj_t_, ptr %3, i32 0, i32 1
  %5 = load ptr, ptr %4, align 8, !tbaa !48
  %6 = call ptr @Aig_Regular(ptr noundef %5)
  ret ptr %6
}

; Function Attrs: inlinehint nounwind uwtable
define internal i32 @Aig_ObjIsNode(ptr noundef %0) #2 {
  %2 = alloca ptr, align 8
  store ptr %0, ptr %2, align 8, !tbaa !28
  %3 = load ptr, ptr %2, align 8, !tbaa !28
  %4 = getelementptr inbounds nuw %struct.Aig_Obj_t_, ptr %3, i32 0, i32 3
  %5 = load i64, ptr %4, align 8
  %6 = and i64 %5, 7
  %7 = trunc i64 %6 to i32
  %8 = icmp eq i32 %7, 5
  br i1 %8, label %16, label %9

9:                                                ; preds = %1
  %10 = load ptr, ptr %2, align 8, !tbaa !28
  %11 = getelementptr inbounds nuw %struct.Aig_Obj_t_, ptr %10, i32 0, i32 3
  %12 = load i64, ptr %11, align 8
  %13 = and i64 %12, 7
  %14 = trunc i64 %13 to i32
  %15 = icmp eq i32 %14, 6
  br label %16

16:                                               ; preds = %9, %1
  %17 = phi i1 [ true, %1 ], [ %15, %9 ]
  %18 = zext i1 %17 to i32
  ret i32 %18
}

; Function Attrs: inlinehint nounwind uwtable
define internal ptr @Aig_ManObj(ptr noundef %0, i32 noundef %1) #2 {
  %3 = alloca ptr, align 8
  %4 = alloca i32, align 4
  store ptr %0, ptr %3, align 8, !tbaa !3
  store i32 %1, ptr %4, align 4, !tbaa !10
  %5 = load ptr, ptr %3, align 8, !tbaa !3
  %6 = getelementptr inbounds nuw %struct.Aig_Man_t_, ptr %5, i32 0, i32 4
  %7 = load ptr, ptr %6, align 8, !tbaa !16
  %8 = icmp ne ptr %7, null
  br i1 %8, label %9, label %15

9:                                                ; preds = %2
  %10 = load ptr, ptr %3, align 8, !tbaa !3
  %11 = getelementptr inbounds nuw %struct.Aig_Man_t_, ptr %10, i32 0, i32 4
  %12 = load ptr, ptr %11, align 8, !tbaa !16
  %13 = load i32, ptr %4, align 4, !tbaa !10
  %14 = call ptr @Vec_PtrEntry(ptr noundef %12, i32 noundef %13)
  br label %16

15:                                               ; preds = %2
  br label %16

16:                                               ; preds = %15, %9
  %17 = phi ptr [ %14, %9 ], [ null, %15 ]
  ret ptr %17
}

; Function Attrs: inlinehint nounwind uwtable
define internal i32 @Vec_IntEntry(ptr noundef %0, i32 noundef %1) #2 {
  %3 = alloca ptr, align 8
  %4 = alloca i32, align 4
  store ptr %0, ptr %3, align 8, !tbaa !8
  store i32 %1, ptr %4, align 4, !tbaa !10
  %5 = load ptr, ptr %3, align 8, !tbaa !8
  %6 = getelementptr inbounds nuw %struct.Vec_Int_t_, ptr %5, i32 0, i32 2
  %7 = load ptr, ptr %6, align 8, !tbaa !15
  %8 = load i32, ptr %4, align 4, !tbaa !10
  %9 = sext i32 %8 to i64
  %10 = getelementptr inbounds i32, ptr %7, i64 %9
  %11 = load i32, ptr %10, align 4, !tbaa !10
  ret i32 %11
}

; Function Attrs: inlinehint nounwind uwtable
define internal ptr @Vec_PtrEntry(ptr noundef %0, i32 noundef %1) #2 {
  %3 = alloca ptr, align 8
  %4 = alloca i32, align 4
  store ptr %0, ptr %3, align 8, !tbaa !34
  store i32 %1, ptr %4, align 4, !tbaa !10
  %5 = load ptr, ptr %3, align 8, !tbaa !34
  %6 = getelementptr inbounds nuw %struct.Vec_Ptr_t_, ptr %5, i32 0, i32 2
  %7 = load ptr, ptr %6, align 8, !tbaa !39
  %8 = load i32, ptr %4, align 4, !tbaa !10
  %9 = sext i32 %8 to i64
  %10 = getelementptr inbounds ptr, ptr %7, i64 %9
  %11 = load ptr, ptr %10, align 8, !tbaa !38
  ret ptr %11
}

; Function Attrs: inlinehint nounwind uwtable
define internal i32 @Vec_PtrSize(ptr noundef %0) #2 {
  %2 = alloca ptr, align 8
  store ptr %0, ptr %2, align 8, !tbaa !34
  %3 = load ptr, ptr %2, align 8, !tbaa !34
  %4 = getelementptr inbounds nuw %struct.Vec_Ptr_t_, ptr %3, i32 0, i32 1
  %5 = load i32, ptr %4, align 4, !tbaa !35
  ret i32 %5
}

; Function Attrs: inlinehint nounwind uwtable
define internal ptr @Aig_ManConst1(ptr noundef %0) #2 {
  %2 = alloca ptr, align 8
  store ptr %0, ptr %2, align 8, !tbaa !3
  %3 = load ptr, ptr %2, align 8, !tbaa !3
  %4 = getelementptr inbounds nuw %struct.Aig_Man_t_, ptr %3, i32 0, i32 6
  %5 = load ptr, ptr %4, align 8, !tbaa !72
  ret ptr %5
}

; Function Attrs: nounwind uwtable
define void @Aig_ManPartSetNodePolarity(ptr noundef %0, ptr noundef %1, ptr noundef %2) #0 {
  %4 = alloca ptr, align 8
  %5 = alloca ptr, align 8
  %6 = alloca ptr, align 8
  %7 = alloca ptr, align 8
  %8 = alloca ptr, align 8
  %9 = alloca i32, align 4
  store ptr %0, ptr %4, align 8, !tbaa !3
  store ptr %1, ptr %5, align 8, !tbaa !3
  store ptr %2, ptr %6, align 8, !tbaa !8
  call void @llvm.lifetime.start.p0(i64 8, ptr %7) #10
  call void @llvm.lifetime.start.p0(i64 8, ptr %8) #10
  call void @llvm.lifetime.start.p0(i64 4, ptr %9) #10
  %10 = load ptr, ptr %5, align 8, !tbaa !3
  %11 = call ptr @Aig_ManConst1(ptr noundef %10)
  %12 = getelementptr inbounds nuw %struct.Aig_Obj_t_, ptr %11, i32 0, i32 3
  %13 = load i64, ptr %12, align 8
  %14 = and i64 %13, -9
  %15 = or i64 %14, 8
  store i64 %15, ptr %12, align 8
  store i32 0, ptr %9, align 4, !tbaa !10
  br label %16

16:                                               ; preds = %51, %3
  %17 = load i32, ptr %9, align 4, !tbaa !10
  %18 = load ptr, ptr %5, align 8, !tbaa !3
  %19 = getelementptr inbounds nuw %struct.Aig_Man_t_, ptr %18, i32 0, i32 2
  %20 = load ptr, ptr %19, align 8, !tbaa !68
  %21 = call i32 @Vec_PtrSize(ptr noundef %20)
  %22 = icmp slt i32 %17, %21
  br i1 %22, label %23, label %29

23:                                               ; preds = %16
  %24 = load ptr, ptr %5, align 8, !tbaa !3
  %25 = getelementptr inbounds nuw %struct.Aig_Man_t_, ptr %24, i32 0, i32 2
  %26 = load ptr, ptr %25, align 8, !tbaa !68
  %27 = load i32, ptr %9, align 4, !tbaa !10
  %28 = call ptr @Vec_PtrEntry(ptr noundef %26, i32 noundef %27)
  store ptr %28, ptr %7, align 8, !tbaa !28
  br label %29

29:                                               ; preds = %23, %16
  %30 = phi i1 [ false, %16 ], [ true, %23 ]
  br i1 %30, label %31, label %54

31:                                               ; preds = %29
  %32 = load ptr, ptr %4, align 8, !tbaa !3
  %33 = load ptr, ptr %6, align 8, !tbaa !8
  %34 = load i32, ptr %9, align 4, !tbaa !10
  %35 = call i32 @Vec_IntEntry(ptr noundef %33, i32 noundef %34)
  %36 = call ptr @Aig_ManObj(ptr noundef %32, i32 noundef %35)
  store ptr %36, ptr %8, align 8, !tbaa !28
  %37 = load ptr, ptr %8, align 8, !tbaa !28
  %38 = getelementptr inbounds nuw %struct.Aig_Obj_t_, ptr %37, i32 0, i32 3
  %39 = load i64, ptr %38, align 8
  %40 = lshr i64 %39, 3
  %41 = and i64 %40, 1
  %42 = trunc i64 %41 to i32
  %43 = load ptr, ptr %7, align 8, !tbaa !28
  %44 = getelementptr inbounds nuw %struct.Aig_Obj_t_, ptr %43, i32 0, i32 3
  %45 = zext i32 %42 to i64
  %46 = load i64, ptr %44, align 8
  %47 = and i64 %45, 1
  %48 = shl i64 %47, 3
  %49 = and i64 %46, -9
  %50 = or i64 %49, %48
  store i64 %50, ptr %44, align 8
  br label %51

51:                                               ; preds = %31
  %52 = load i32, ptr %9, align 4, !tbaa !10
  %53 = add nsw i32 %52, 1
  store i32 %53, ptr %9, align 4, !tbaa !10
  br label %16, !llvm.loop !69

54:                                               ; preds = %29
  store i32 0, ptr %9, align 4, !tbaa !10
  br label %55

55:                                               ; preds = %109, %54
  %56 = load i32, ptr %9, align 4, !tbaa !10
  %57 = load ptr, ptr %5, align 8, !tbaa !3
  %58 = getelementptr inbounds nuw %struct.Aig_Man_t_, ptr %57, i32 0, i32 4
  %59 = load ptr, ptr %58, align 8, !tbaa !16
  %60 = call i32 @Vec_PtrSize(ptr noundef %59)
  %61 = icmp slt i32 %56, %60
  br i1 %61, label %62, label %68

62:                                               ; preds = %55
  %63 = load ptr, ptr %5, align 8, !tbaa !3
  %64 = getelementptr inbounds nuw %struct.Aig_Man_t_, ptr %63, i32 0, i32 4
  %65 = load ptr, ptr %64, align 8, !tbaa !16
  %66 = load i32, ptr %9, align 4, !tbaa !10
  %67 = call ptr @Vec_PtrEntry(ptr noundef %65, i32 noundef %66)
  store ptr %67, ptr %7, align 8, !tbaa !28
  br label %68

68:                                               ; preds = %62, %55
  %69 = phi i1 [ false, %55 ], [ true, %62 ]
  br i1 %69, label %70, label %112

70:                                               ; preds = %68
  %71 = load ptr, ptr %7, align 8, !tbaa !28
  %72 = icmp eq ptr %71, null
  br i1 %72, label %77, label %73

73:                                               ; preds = %70
  %74 = load ptr, ptr %7, align 8, !tbaa !28
  %75 = call i32 @Aig_ObjIsNode(ptr noundef %74)
  %76 = icmp ne i32 %75, 0
  br i1 %76, label %78, label %77

77:                                               ; preds = %73, %70
  br label %108

78:                                               ; preds = %73
  %79 = load ptr, ptr %7, align 8, !tbaa !28
  %80 = call ptr @Aig_ObjFanin0(ptr noundef %79)
  %81 = getelementptr inbounds nuw %struct.Aig_Obj_t_, ptr %80, i32 0, i32 3
  %82 = load i64, ptr %81, align 8
  %83 = lshr i64 %82, 3
  %84 = and i64 %83, 1
  %85 = trunc i64 %84 to i32
  %86 = load ptr, ptr %7, align 8, !tbaa !28
  %87 = call i32 @Aig_ObjFaninC0(ptr noundef %86)
  %88 = xor i32 %85, %87
  %89 = load ptr, ptr %7, align 8, !tbaa !28
  %90 = call ptr @Aig_ObjFanin1(ptr noundef %89)
  %91 = getelementptr inbounds nuw %struct.Aig_Obj_t_, ptr %90, i32 0, i32 3
  %92 = load i64, ptr %91, align 8
  %93 = lshr i64 %92, 3
  %94 = and i64 %93, 1
  %95 = trunc i64 %94 to i32
  %96 = load ptr, ptr %7, align 8, !tbaa !28
  %97 = call i32 @Aig_ObjFaninC1(ptr noundef %96)
  %98 = xor i32 %95, %97
  %99 = and i32 %88, %98
  %100 = load ptr, ptr %7, align 8, !tbaa !28
  %101 = getelementptr inbounds nuw %struct.Aig_Obj_t_, ptr %100, i32 0, i32 3
  %102 = zext i32 %99 to i64
  %103 = load i64, ptr %101, align 8
  %104 = and i64 %102, 1
  %105 = shl i64 %104, 3
  %106 = and i64 %103, -9
  %107 = or i64 %106, %105
  store i64 %107, ptr %101, align 8
  br label %108

108:                                              ; preds = %78, %77
  br label %109

109:                                              ; preds = %108
  %110 = load i32, ptr %9, align 4, !tbaa !10
  %111 = add nsw i32 %110, 1
  store i32 %111, ptr %9, align 4, !tbaa !10
  br label %55, !llvm.loop !70

112:                                              ; preds = %68
  store i32 0, ptr %9, align 4, !tbaa !10
  br label %113

113:                                              ; preds = %155, %112
  %114 = load i32, ptr %9, align 4, !tbaa !10
  %115 = load ptr, ptr %5, align 8, !tbaa !3
  %116 = getelementptr inbounds nuw %struct.Aig_Man_t_, ptr %115, i32 0, i32 3
  %117 = load ptr, ptr %116, align 8, !tbaa !58
  %118 = call i32 @Vec_PtrSize(ptr noundef %117)
  %119 = icmp slt i32 %114, %118
  br i1 %119, label %120, label %126

120:                                              ; preds = %113
  %121 = load ptr, ptr %5, align 8, !tbaa !3
  %122 = getelementptr inbounds nuw %struct.Aig_Man_t_, ptr %121, i32 0, i32 3
  %123 = load ptr, ptr %122, align 8, !tbaa !58
  %124 = load i32, ptr %9, align 4, !tbaa !10
  %125 = call ptr @Vec_PtrEntry(ptr noundef %123, i32 noundef %124)
  store ptr %125, ptr %7, align 8, !tbaa !28
  br label %126

126:                                              ; preds = %120, %113
  %127 = phi i1 [ false, %113 ], [ true, %120 ]
  br i1 %127, label %128, label %158

128:                                              ; preds = %126
  %129 = load ptr, ptr %4, align 8, !tbaa !3
  %130 = load ptr, ptr %6, align 8, !tbaa !8
  %131 = load ptr, ptr %5, align 8, !tbaa !3
  %132 = call i32 @Aig_ManCiNum(ptr noundef %131)
  %133 = load i32, ptr %9, align 4, !tbaa !10
  %134 = add nsw i32 %132, %133
  %135 = call i32 @Vec_IntEntry(ptr noundef %130, i32 noundef %134)
  %136 = call ptr @Aig_ManObj(ptr noundef %129, i32 noundef %135)
  store ptr %136, ptr %8, align 8, !tbaa !28
  %137 = load ptr, ptr %7, align 8, !tbaa !28
  %138 = call ptr @Aig_ObjFanin0(ptr noundef %137)
  %139 = getelementptr inbounds nuw %struct.Aig_Obj_t_, ptr %138, i32 0, i32 3
  %140 = load i64, ptr %139, align 8
  %141 = lshr i64 %140, 3
  %142 = and i64 %141, 1
  %143 = trunc i64 %142 to i32
  %144 = load ptr, ptr %7, align 8, !tbaa !28
  %145 = call i32 @Aig_ObjFaninC0(ptr noundef %144)
  %146 = xor i32 %143, %145
  %147 = load ptr, ptr %7, align 8, !tbaa !28
  %148 = getelementptr inbounds nuw %struct.Aig_Obj_t_, ptr %147, i32 0, i32 3
  %149 = zext i32 %146 to i64
  %150 = load i64, ptr %148, align 8
  %151 = and i64 %149, 1
  %152 = shl i64 %151, 3
  %153 = and i64 %150, -9
  %154 = or i64 %153, %152
  store i64 %154, ptr %148, align 8
  br label %155

155:                                              ; preds = %128
  %156 = load i32, ptr %9, align 4, !tbaa !10
  %157 = add nsw i32 %156, 1
  store i32 %157, ptr %9, align 4, !tbaa !10
  br label %113, !llvm.loop !71

158:                                              ; preds = %126
  call void @llvm.lifetime.end.p0(i64 4, ptr %9) #10
  call void @llvm.lifetime.end.p0(i64 8, ptr %8) #10
  call void @llvm.lifetime.end.p0(i64 8, ptr %7) #10
  ret void
}