; Function Attrs: nofree norecurse nosync nounwind memory(readwrite, inaccessiblemem: none) uwtable
define void @Aig_ManPartSetNodePolarity(ptr noundef readonly captures(none) %0, ptr noundef readonly captures(none) %1, ptr noundef readonly captures(none) %2) local_unnamed_addr #6 {
  %4 = getelementptr i8, ptr %1, i64 48
  %.val55 = load ptr, ptr %4, align 8, !tbaa !61
  %5 = getelementptr inbounds nuw i8, ptr %.val55, i64 24
  %6 = load i64, ptr %5, align 8
  %7 = or i64 %6, 8
  store i64 %7, ptr %5, align 8
  %8 = getelementptr inbounds nuw i8, ptr %1, i64 16
  %9 = load ptr, ptr %8, align 8, !tbaa !62
  %10 = getelementptr i8, ptr %9, i64 4
  %.val4061 = load i32, ptr %10, align 4, !tbaa !21
  %11 = icmp sgt i32 %.val4061, 0
  br i1 %11, label %Aig_ManObj.exit.lr.ph, label %.critedge.preheader

Aig_ManObj.exit.lr.ph:                            ; preds = %3
  %12 = getelementptr i8, ptr %2, i64 8
  %13 = getelementptr i8, ptr %0, i64 32
  br label %Aig_ManObj.exit

.critedge.preheader:                              ; preds = %Aig_ManObj.exit, %3
  %14 = getelementptr inbounds nuw i8, ptr %1, i64 32
  %15 = load ptr, ptr %14, align 8, !tbaa !3
  %16 = getelementptr i8, ptr %15, i64 4
  %.val3963 = load i32, ptr %16, align 4, !tbaa !21
  %17 = icmp sgt i32 %.val3963, 0
  br i1 %17, label %.lr.ph, label %.critedge2.preheader

Aig_ManObj.exit:                                  ; preds = %Aig_ManObj.exit.lr.ph, %Aig_ManObj.exit
  %indvars.iv = phi i64 [ 0, %Aig_ManObj.exit.lr.ph ], [ %indvars.iv.next, %Aig_ManObj.exit ]
  %18 = phi ptr [ %9, %Aig_ManObj.exit.lr.ph ], [ %35, %Aig_ManObj.exit ]
  %19 = getelementptr i8, ptr %18, i64 8
  %.val43 = load ptr, ptr %19, align 8, !tbaa !33
  %20 = getelementptr inbounds nuw ptr, ptr %.val43, i64 %indvars.iv
  %21 = load ptr, ptr %20, align 8, !tbaa !32
  %.val51 = load ptr, ptr %12, align 8, !tbaa !25
  %22 = getelementptr inbounds nuw i32, ptr %.val51, i64 %indvars.iv
  %23 = load i32, ptr %22, align 4, !tbaa !35
  %.val53 = load ptr, ptr %13, align 8, !tbaa !3, !nonnull !63, !noundef !63
  %24 = getelementptr i8, ptr %.val53, i64 8
  %.val.i = load ptr, ptr %24, align 8, !tbaa !33
  %25 = sext i32 %23 to i64
  %26 = getelementptr inbounds ptr, ptr %.val.i, i64 %25
  %27 = load ptr, ptr %26, align 8, !tbaa !32
  %28 = getelementptr inbounds nuw i8, ptr %27, i64 24
  %29 = load i64, ptr %28, align 8
  %30 = and i64 %29, 8
  %31 = getelementptr inbounds nuw i8, ptr %21, i64 24
  %32 = load i64, ptr %31, align 8
  %33 = and i64 %32, -9
  %34 = or disjoint i64 %33, %30
  store i64 %34, ptr %31, align 8
  %indvars.iv.next = add nuw nsw i64 %indvars.iv, 1
  %35 = load ptr, ptr %8, align 8, !tbaa !62
  %36 = getelementptr i8, ptr %35, i64 4
  %.val40 = load i32, ptr %36, align 4, !tbaa !21
  %37 = sext i32 %.val40 to i64
  %38 = icmp slt i64 %indvars.iv.next, %37
  br i1 %38, label %Aig_ManObj.exit, label %.critedge.preheader, !llvm.loop !64

.critedge2.preheader:                             ; preds = %.critedge, %.critedge.preheader
  %39 = getelementptr inbounds nuw i8, ptr %1, i64 24
  %40 = load ptr, ptr %39, align 8, !tbaa !52
  %41 = getelementptr i8, ptr %40, i64 4
  %.val65 = load i32, ptr %41, align 4, !tbaa !21
  %42 = icmp sgt i32 %.val65, 0
  br i1 %42, label %Aig_ManObj.exit59, label %.critedge4

.lr.ph:                                           ; preds = %.critedge.preheader, %.critedge
  %43 = phi ptr [ %81, %.critedge ], [ %15, %.critedge.preheader ]
  %indvars.iv68 = phi i64 [ %indvars.iv.next69, %.critedge ], [ 0, %.critedge.preheader ]
  %44 = getelementptr i8, ptr %43, i64 8
  %.val42 = load ptr, ptr %44, align 8, !tbaa !33
  %45 = getelementptr inbounds nuw ptr, ptr %.val42, i64 %indvars.iv68
  %46 = load ptr, ptr %45, align 8, !tbaa !32
  %47 = icmp eq ptr %46, null
  br i1 %47, label %.critedge, label %48

48:                                               ; preds = %.lr.ph
  %49 = getelementptr i8, ptr %46, i64 24
  %.val54 = load i64, ptr %49, align 8
  %50 = trunc i64 %.val54 to i32
  %51 = and i32 %50, 7
  %52 = add nsw i32 %51, -7
  %narrow.i = icmp ult i32 %52, -2
  br i1 %narrow.i, label %.critedge, label %53

53:                                               ; preds = %48
  %54 = getelementptr i8, ptr %46, i64 8
  %.val45 = load ptr, ptr %54, align 8, !tbaa !43
  %55 = ptrtoint ptr %.val45 to i64
  %56 = and i64 %55, -2
  %57 = inttoptr i64 %56 to ptr
  %58 = getelementptr inbounds nuw i8, ptr %57, i64 24
  %59 = load i64, ptr %58, align 8
  %60 = trunc i64 %59 to i32
  %61 = lshr i32 %60, 3
  %62 = trunc i64 %55 to i32
  %63 = xor i32 %61, %62
  %64 = getelementptr i8, ptr %46, i64 16
  %.val46 = load ptr, ptr %64, align 8, !tbaa !44
  %65 = ptrtoint ptr %.val46 to i64
  %66 = and i64 %65, -2
  %67 = inttoptr i64 %66 to ptr
  %68 = getelementptr inbounds nuw i8, ptr %67, i64 24
  %69 = load i64, ptr %68, align 8
  %70 = trunc i64 %69 to i32
  %71 = lshr i32 %70, 3
  %72 = trunc i64 %65 to i32
  %73 = and i32 %72, 1
  %74 = xor i32 %71, %73
  %75 = and i32 %74, %63
  %76 = shl nuw i32 %75, 3
  %77 = and i32 %76, 8
  %78 = zext nneg i32 %77 to i64
  %79 = and i64 %.val54, -9
  %80 = or disjoint i64 %79, %78
  store i64 %80, ptr %49, align 8
  %.pre = load ptr, ptr %14, align 8, !tbaa !3
  br label %.critedge

.critedge:                                        ; preds = %53, %48, %.lr.ph
  %81 = phi ptr [ %.pre, %53 ], [ %43, %48 ], [ %43, %.lr.ph ]
  %indvars.iv.next69 = add nuw nsw i64 %indvars.iv68, 1
  %82 = getelementptr i8, ptr %81, i64 4
  %.val39 = load i32, ptr %82, align 4, !tbaa !21
  %83 = sext i32 %.val39 to i64
  %84 = icmp slt i64 %indvars.iv.next69, %83
  br i1 %84, label %.lr.ph, label %.critedge2.preheader, !llvm.loop !65

Aig_ManObj.exit59:                                ; preds = %.critedge2.preheader, %Aig_ManObj.exit59
  %indvars.iv71 = phi i64 [ %indvars.iv.next72, %Aig_ManObj.exit59 ], [ 0, %.critedge2.preheader ]
  %85 = phi ptr [ %101, %Aig_ManObj.exit59 ], [ %40, %.critedge2.preheader ]
  %86 = getelementptr i8, ptr %85, i64 8
  %.val41 = load ptr, ptr %86, align 8, !tbaa !33
  %87 = getelementptr inbounds nuw ptr, ptr %.val41, i64 %indvars.iv71
  %88 = load ptr, ptr %87, align 8, !tbaa !32
  %89 = getelementptr i8, ptr %88, i64 8
  %.val44 = load ptr, ptr %89, align 8, !tbaa !43
  %90 = ptrtoint ptr %.val44 to i64
  %91 = and i64 %90, -2
  %92 = inttoptr i64 %91 to ptr
  %93 = getelementptr inbounds nuw i8, ptr %92, i64 24
  %94 = load i64, ptr %93, align 8
  %95 = getelementptr inbounds nuw i8, ptr %88, i64 24
  %96 = load i64, ptr %95, align 8
  %97 = shl i64 %90, 3
  %.mask60 = xor i64 %97, %94
  %98 = and i64 %.mask60, 8
  %99 = and i64 %96, -9
  %100 = or disjoint i64 %98, %99
  store i64 %100, ptr %95, align 8
  %indvars.iv.next72 = add nuw nsw i64 %indvars.iv71, 1
  %101 = load ptr, ptr %39, align 8, !tbaa !52
  %102 = getelementptr i8, ptr %101, i64 4
  %.val = load i32, ptr %102, align 4, !tbaa !21
  %103 = sext i32 %.val to i64
  %104 = icmp slt i64 %indvars.iv.next72, %103
  br i1 %104, label %Aig_ManObj.exit59, label %.critedge4, !llvm.loop !66

.critedge4:                                       ; preds = %Aig_ManObj.exit59, %.critedge2.preheader
  ret void
}